
Zeg_T3_ACCEL.elf:     file format elf32-avr

Sections:
Idx Name          Size      VMA       LMA       File off  Algn
  0 .data         0000001a  00800100  00000688  0000071c  2**0
                  CONTENTS, ALLOC, LOAD, DATA
  1 .text         00000688  00000000  00000000  00000094  2**1
                  CONTENTS, ALLOC, LOAD, READONLY, CODE
  2 .bss          00000047  0080011a  0080011a  00000736  2**0
                  ALLOC

Disassembly of section .text:

00000000 <__vectors>:
   0:	0c 94 34 00 	jmp	0x68	; 0x68 <__ctors_end>
   4:	0c 94 51 00 	jmp	0xa2	; 0xa2 <__bad_interrupt>
   8:	0c 94 51 00 	jmp	0xa2	; 0xa2 <__bad_interrupt>
   c:	0c 94 51 00 	jmp	0xa2	; 0xa2 <__bad_interrupt>
  10:	0c 94 51 00 	jmp	0xa2	; 0xa2 <__bad_interrupt>
  14:	0c 94 51 00 	jmp	0xa2	; 0xa2 <__bad_interrupt>
  18:	0c 94 51 00 	jmp	0xa2	; 0xa2 <__bad_interrupt>
  1c:	0c 94 51 00 	jmp	0xa2	; 0xa2 <__bad_interrupt>
  20:	0c 94 51 00 	jmp	0xa2	; 0xa2 <__bad_interrupt>
  24:	0c 94 51 00 	jmp	0xa2	; 0xa2 <__bad_interrupt>
  28:	0c 94 51 00 	jmp	0xa2	; 0xa2 <__bad_interrupt>
  2c:	0c 94 51 00 	jmp	0xa2	; 0xa2 <__bad_interrupt>
  30:	0c 94 51 00 	jmp	0xa2	; 0xa2 <__bad_interrupt>
  34:	0c 94 51 00 	jmp	0xa2	; 0xa2 <__bad_interrupt>
  38:	0c 94 51 00 	jmp	0xa2	; 0xa2 <__bad_interrupt>
  3c:	0c 94 51 00 	jmp	0xa2	; 0xa2 <__bad_interrupt>
  40:	0c 94 51 00 	jmp	0xa2	; 0xa2 <__bad_interrupt>
  44:	0c 94 51 00 	jmp	0xa2	; 0xa2 <__bad_interrupt>
  48:	0c 94 d2 00 	jmp	0x1a4	; 0x1a4 <__vector_18>
  4c:	0c 94 91 00 	jmp	0x122	; 0x122 <__vector_19>
  50:	0c 94 64 00 	jmp	0xc8	; 0xc8 <__vector_20>
  54:	0c 94 51 00 	jmp	0xa2	; 0xa2 <__bad_interrupt>
  58:	0c 94 51 00 	jmp	0xa2	; 0xa2 <__bad_interrupt>
  5c:	0c 94 51 00 	jmp	0xa2	; 0xa2 <__bad_interrupt>
  60:	0c 94 51 00 	jmp	0xa2	; 0xa2 <__bad_interrupt>
  64:	0c 94 51 00 	jmp	0xa2	; 0xa2 <__bad_interrupt>

00000068 <__ctors_end>:
  68:	11 24       	eor	r1, r1
  6a:	1f be       	out	0x3f, r1	; 63
  6c:	cf ef       	ldi	r28, 0xFF	; 255
  6e:	d8 e0       	ldi	r29, 0x08	; 8
  70:	de bf       	out	0x3e, r29	; 62
  72:	cd bf       	out	0x3d, r28	; 61

00000074 <__do_copy_data>:
  74:	11 e0       	ldi	r17, 0x01	; 1
  76:	a0 e0       	ldi	r26, 0x00	; 0
  78:	b1 e0       	ldi	r27, 0x01	; 1
  7a:	e8 e8       	ldi	r30, 0x88	; 136
  7c:	f6 e0       	ldi	r31, 0x06	; 6
  7e:	02 c0       	rjmp	.+4      	; 0x84 <.do_copy_data_start>

00000080 <.do_copy_data_loop>:
  80:	05 90       	lpm	r0, Z+
  82:	0d 92       	st	X+, r0

00000084 <.do_copy_data_start>:
  84:	aa 31       	cpi	r26, 0x1A	; 26
  86:	b1 07       	cpc	r27, r17
  88:	d9 f7       	brne	.-10     	; 0x80 <.do_copy_data_loop>

0000008a <__do_clear_bss>:
  8a:	11 e0       	ldi	r17, 0x01	; 1
  8c:	aa e1       	ldi	r26, 0x1A	; 26
  8e:	b1 e0       	ldi	r27, 0x01	; 1
  90:	01 c0       	rjmp	.+2      	; 0x94 <.do_clear_bss_start>

00000092 <.do_clear_bss_loop>:
  92:	1d 92       	st	X+, r1

00000094 <.do_clear_bss_start>:
  94:	a1 36       	cpi	r26, 0x61	; 97
  96:	b1 07       	cpc	r27, r17
  98:	e1 f7       	brne	.-8      	; 0x92 <.do_clear_bss_loop>
  9a:	0e 94 c7 02 	call	0x58e	; 0x58e <main>
  9e:	0c 94 42 03 	jmp	0x684	; 0x684 <_exit>

000000a2 <__bad_interrupt>:
  a2:	0c 94 00 00 	jmp	0	; 0x0 <__vectors>

000000a6 <USART_Init>:
  a6:	90 93 c5 00 	sts	0x00C5, r25
  aa:	80 93 c4 00 	sts	0x00C4, r24
  ae:	e1 ec       	ldi	r30, 0xC1	; 193
  b0:	f0 e0       	ldi	r31, 0x00	; 0
  b2:	88 e1       	ldi	r24, 0x18	; 24
  b4:	80 83       	st	Z, r24
  b6:	86 e8       	ldi	r24, 0x86	; 134
  b8:	80 93 c2 00 	sts	0x00C2, r24
  bc:	52 9a       	sbi	0x0a, 2	; 10
  be:	5a 9a       	sbi	0x0b, 2	; 11
  c0:	80 81       	ld	r24, Z
  c2:	88 6d       	ori	r24, 0xD8	; 216
  c4:	80 83       	st	Z, r24
  c6:	08 95       	ret

000000c8 <__vector_20>:
  c8:	1f 92       	push	r1
  ca:	0f 92       	push	r0
  cc:	0f b6       	in	r0, 0x3f	; 63
  ce:	0f 92       	push	r0
  d0:	11 24       	eor	r1, r1
  d2:	5a 98       	cbi	0x0b, 2	; 11
  d4:	0f 90       	pop	r0
  d6:	0f be       	out	0x3f, r0	; 63
  d8:	0f 90       	pop	r0
  da:	1f 90       	pop	r1
  dc:	18 95       	reti

000000de <uart_putc>:
  de:	28 2f       	mov	r18, r24
  e0:	90 91 1a 01 	lds	r25, 0x011A
  e4:	9f 5f       	subi	r25, 0xFF	; 255
  e6:	9f 70       	andi	r25, 0x0F	; 15
  e8:	80 91 1b 01 	lds	r24, 0x011B
  ec:	98 17       	cp	r25, r24
  ee:	e1 f3       	breq	.-8      	; 0xe8 <uart_putc+0xa>
  f0:	e9 2f       	mov	r30, r25
  f2:	f0 e0       	ldi	r31, 0x00	; 0
  f4:	e4 5e       	subi	r30, 0xE4	; 228
  f6:	fe 4f       	sbci	r31, 0xFE	; 254
  f8:	20 83       	st	Z, r18
  fa:	90 93 1a 01 	sts	0x011A, r25
  fe:	80 91 c1 00 	lds	r24, 0x00C1
 102:	80 62       	ori	r24, 0x20	; 32
 104:	80 93 c1 00 	sts	0x00C1, r24
 108:	08 95       	ret

0000010a <uart_puts>:
 10a:	cf 93       	push	r28
 10c:	df 93       	push	r29
 10e:	ec 01       	movw	r28, r24
 110:	02 c0       	rjmp	.+4      	; 0x116 <uart_puts+0xc>
 112:	0e 94 6f 00 	call	0xde	; 0xde <uart_putc>
 116:	89 91       	ld	r24, Y+
 118:	88 23       	and	r24, r24
 11a:	d9 f7       	brne	.-10     	; 0x112 <uart_puts+0x8>
 11c:	df 91       	pop	r29
 11e:	cf 91       	pop	r28
 120:	08 95       	ret

00000122 <__vector_19>:
 122:	1f 92       	push	r1
 124:	0f 92       	push	r0
 126:	0f b6       	in	r0, 0x3f	; 63
 128:	0f 92       	push	r0
 12a:	11 24       	eor	r1, r1
 12c:	8f 93       	push	r24
 12e:	9f 93       	push	r25
 130:	ef 93       	push	r30
 132:	ff 93       	push	r31
 134:	90 91 1a 01 	lds	r25, 0x011A
 138:	80 91 1b 01 	lds	r24, 0x011B
 13c:	98 17       	cp	r25, r24
 13e:	79 f0       	breq	.+30     	; 0x15e <__vector_19+0x3c>
 140:	80 91 1b 01 	lds	r24, 0x011B
 144:	8f 5f       	subi	r24, 0xFF	; 255
 146:	8f 70       	andi	r24, 0x0F	; 15
 148:	80 93 1b 01 	sts	0x011B, r24
 14c:	e0 91 1b 01 	lds	r30, 0x011B
 150:	f0 e0       	ldi	r31, 0x00	; 0
 152:	e4 5e       	subi	r30, 0xE4	; 228
 154:	fe 4f       	sbci	r31, 0xFE	; 254
 156:	80 81       	ld	r24, Z
 158:	80 93 c6 00 	sts	0x00C6, r24
 15c:	05 c0       	rjmp	.+10     	; 0x168 <__vector_19+0x46>
 15e:	80 91 c1 00 	lds	r24, 0x00C1
 162:	8f 7d       	andi	r24, 0xDF	; 223
 164:	80 93 c1 00 	sts	0x00C1, r24
 168:	ff 91       	pop	r31
 16a:	ef 91       	pop	r30
 16c:	9f 91       	pop	r25
 16e:	8f 91       	pop	r24
 170:	0f 90       	pop	r0
 172:	0f be       	out	0x3f, r0	; 63
 174:	0f 90       	pop	r0
 176:	1f 90       	pop	r1
 178:	18 95       	reti

0000017a <uart_getc>:
 17a:	90 91 2c 01 	lds	r25, 0x012C
 17e:	80 91 2d 01 	lds	r24, 0x012D
 182:	98 17       	cp	r25, r24
 184:	11 f4       	brne	.+4      	; 0x18a <uart_getc+0x10>
 186:	80 e0       	ldi	r24, 0x00	; 0
 188:	08 95       	ret
 18a:	80 91 2d 01 	lds	r24, 0x012D
 18e:	8f 5f       	subi	r24, 0xFF	; 255
 190:	8f 71       	andi	r24, 0x1F	; 31
 192:	80 93 2d 01 	sts	0x012D, r24
 196:	e0 91 2d 01 	lds	r30, 0x012D
 19a:	f0 e0       	ldi	r31, 0x00	; 0
 19c:	e2 5d       	subi	r30, 0xD2	; 210
 19e:	fe 4f       	sbci	r31, 0xFE	; 254
 1a0:	80 81       	ld	r24, Z
 1a2:	08 95       	ret

000001a4 <__vector_18>:
 1a4:	1f 92       	push	r1
 1a6:	0f 92       	push	r0
 1a8:	0f b6       	in	r0, 0x3f	; 63
 1aa:	0f 92       	push	r0
 1ac:	11 24       	eor	r1, r1
 1ae:	8f 93       	push	r24
 1b0:	9f 93       	push	r25
 1b2:	ef 93       	push	r30
 1b4:	ff 93       	push	r31
 1b6:	90 91 c6 00 	lds	r25, 0x00C6
 1ba:	e0 91 2c 01 	lds	r30, 0x012C
 1be:	ef 5f       	subi	r30, 0xFF	; 255
 1c0:	ef 71       	andi	r30, 0x1F	; 31
 1c2:	80 91 2d 01 	lds	r24, 0x012D
 1c6:	e8 17       	cp	r30, r24
 1c8:	31 f0       	breq	.+12     	; 0x1d6 <__vector_18+0x32>
 1ca:	e0 93 2c 01 	sts	0x012C, r30
 1ce:	f0 e0       	ldi	r31, 0x00	; 0
 1d0:	e2 5d       	subi	r30, 0xD2	; 210
 1d2:	fe 4f       	sbci	r31, 0xFE	; 254
 1d4:	90 83       	st	Z, r25
 1d6:	ff 91       	pop	r31
 1d8:	ef 91       	pop	r30
 1da:	9f 91       	pop	r25
 1dc:	8f 91       	pop	r24
 1de:	0f 90       	pop	r0
 1e0:	0f be       	out	0x3f, r0	; 63
 1e2:	0f 90       	pop	r0
 1e4:	1f 90       	pop	r1
 1e6:	18 95       	reti

000001e8 <uart_putint>:
 1e8:	0f 93       	push	r16
 1ea:	1f 93       	push	r17
 1ec:	df 93       	push	r29
 1ee:	cf 93       	push	r28
 1f0:	cd b7       	in	r28, 0x3d	; 61
 1f2:	de b7       	in	r29, 0x3e	; 62
 1f4:	61 97       	sbiw	r28, 0x11	; 17
 1f6:	0f b6       	in	r0, 0x3f	; 63
 1f8:	f8 94       	cli
 1fa:	de bf       	out	0x3e, r29	; 62
 1fc:	0f be       	out	0x3f, r0	; 63
 1fe:	cd bf       	out	0x3d, r28	; 61
 200:	ab 01       	movw	r20, r22
 202:	8e 01       	movw	r16, r28
 204:	0f 5f       	subi	r16, 0xFF	; 255
 206:	1f 4f       	sbci	r17, 0xFF	; 255
 208:	b8 01       	movw	r22, r16
 20a:	0e 94 11 03 	call	0x622	; 0x622 <itoa>
 20e:	c8 01       	movw	r24, r16
 210:	0e 94 85 00 	call	0x10a	; 0x10a <uart_puts>
 214:	61 96       	adiw	r28, 0x11	; 17
 216:	0f b6       	in	r0, 0x3f	; 63
 218:	f8 94       	cli
 21a:	de bf       	out	0x3e, r29	; 62
 21c:	0f be       	out	0x3f, r0	; 63
 21e:	cd bf       	out	0x3d, r28	; 61
 220:	cf 91       	pop	r28
 222:	df 91       	pop	r29
 224:	1f 91       	pop	r17
 226:	0f 91       	pop	r16
 228:	08 95       	ret

0000022a <i2cSetBitrate>:
 22a:	bc 01       	movw	r22, r24
 22c:	80 ee       	ldi	r24, 0xE0	; 224
 22e:	9e e2       	ldi	r25, 0x2E	; 46
 230:	0e 94 fd 02 	call	0x5fa	; 0x5fa <__udivmodhi4>
 234:	60 31       	cpi	r22, 0x10	; 16
 236:	30 f0       	brcs	.+12     	; 0x244 <i2cSetBitrate+0x1a>
 238:	86 2f       	mov	r24, r22
 23a:	90 e0       	ldi	r25, 0x00	; 0
 23c:	40 97       	sbiw	r24, 0x10	; 16
 23e:	95 95       	asr	r25
 240:	87 95       	ror	r24
 242:	68 2f       	mov	r22, r24
 244:	60 93 b8 00 	sts	0x00B8, r22
 248:	08 95       	ret

0000024a <TWI_start>:
 24a:	84 ea       	ldi	r24, 0xA4	; 164
 24c:	80 93 bc 00 	sts	0x00BC, r24
 250:	80 91 bc 00 	lds	r24, 0x00BC
 254:	87 ff       	sbrs	r24, 7
 256:	fc cf       	rjmp	.-8      	; 0x250 <TWI_start+0x6>
 258:	08 95       	ret

0000025a <TWI_stop>:
 25a:	84 e9       	ldi	r24, 0x94	; 148
 25c:	80 93 bc 00 	sts	0x00BC, r24
 260:	80 91 bc 00 	lds	r24, 0x00BC
 264:	84 fd       	sbrc	r24, 4
 266:	fc cf       	rjmp	.-8      	; 0x260 <TWI_stop+0x6>
 268:	08 95       	ret

0000026a <TWI_write>:
 26a:	80 93 bb 00 	sts	0x00BB, r24
 26e:	84 e8       	ldi	r24, 0x84	; 132
 270:	80 93 bc 00 	sts	0x00BC, r24
 274:	80 91 bc 00 	lds	r24, 0x00BC
 278:	87 ff       	sbrs	r24, 7
 27a:	fc cf       	rjmp	.-8      	; 0x274 <TWI_write+0xa>
 27c:	08 95       	ret

0000027e <TWI_read>:
 27e:	82 95       	swap	r24
 280:	88 0f       	add	r24, r24
 282:	88 0f       	add	r24, r24
 284:	80 7c       	andi	r24, 0xC0	; 192
 286:	84 68       	ori	r24, 0x84	; 132
 288:	80 93 bc 00 	sts	0x00BC, r24
 28c:	80 91 bc 00 	lds	r24, 0x00BC
 290:	87 ff       	sbrs	r24, 7
 292:	fc cf       	rjmp	.-8      	; 0x28c <TWI_read+0xe>
 294:	80 91 bb 00 	lds	r24, 0x00BB
 298:	08 95       	ret

0000029a <TWI_write_buf>:
 29a:	98 2f       	mov	r25, r24
 29c:	f9 01       	movw	r30, r18
 29e:	84 ea       	ldi	r24, 0xA4	; 164
 2a0:	80 93 bc 00 	sts	0x00BC, r24
 2a4:	80 91 bc 00 	lds	r24, 0x00BC
 2a8:	87 ff       	sbrs	r24, 7
 2aa:	fc cf       	rjmp	.-8      	; 0x2a4 <TWI_write_buf+0xa>
 2ac:	90 93 bb 00 	sts	0x00BB, r25
 2b0:	84 e8       	ldi	r24, 0x84	; 132
 2b2:	80 93 bc 00 	sts	0x00BC, r24
 2b6:	80 91 bc 00 	lds	r24, 0x00BC
 2ba:	87 ff       	sbrs	r24, 7
 2bc:	fc cf       	rjmp	.-8      	; 0x2b6 <TWI_write_buf+0x1c>
 2be:	60 93 bb 00 	sts	0x00BB, r22
 2c2:	84 e8       	ldi	r24, 0x84	; 132
 2c4:	80 93 bc 00 	sts	0x00BC, r24
 2c8:	80 91 bc 00 	lds	r24, 0x00BC
 2cc:	87 ff       	sbrs	r24, 7
 2ce:	fc cf       	rjmp	.-8      	; 0x2c8 <TWI_write_buf+0x2e>
 2d0:	0c c0       	rjmp	.+24     	; 0x2ea <TWI_write_buf+0x50>
 2d2:	80 81       	ld	r24, Z
 2d4:	80 93 bb 00 	sts	0x00BB, r24
 2d8:	90 93 bc 00 	sts	0x00BC, r25
 2dc:	80 91 bc 00 	lds	r24, 0x00BC
 2e0:	87 ff       	sbrs	r24, 7
 2e2:	fc cf       	rjmp	.-8      	; 0x2dc <TWI_write_buf+0x42>
 2e4:	31 96       	adiw	r30, 0x01	; 1
 2e6:	41 50       	subi	r20, 0x01	; 1
 2e8:	01 c0       	rjmp	.+2      	; 0x2ec <TWI_write_buf+0x52>
 2ea:	94 e8       	ldi	r25, 0x84	; 132
 2ec:	44 23       	and	r20, r20
 2ee:	89 f7       	brne	.-30     	; 0x2d2 <TWI_write_buf+0x38>
 2f0:	84 e9       	ldi	r24, 0x94	; 148
 2f2:	80 93 bc 00 	sts	0x00BC, r24
 2f6:	80 91 bc 00 	lds	r24, 0x00BC
 2fa:	84 fd       	sbrc	r24, 4
 2fc:	fc cf       	rjmp	.-8      	; 0x2f6 <TWI_write_buf+0x5c>
 2fe:	08 95       	ret

00000300 <TWI_read_buf>:
 300:	98 2f       	mov	r25, r24
 302:	f9 01       	movw	r30, r18
 304:	84 ea       	ldi	r24, 0xA4	; 164
 306:	80 93 bc 00 	sts	0x00BC, r24
 30a:	80 91 bc 00 	lds	r24, 0x00BC
 30e:	87 ff       	sbrs	r24, 7
 310:	fc cf       	rjmp	.-8      	; 0x30a <TWI_read_buf+0xa>
 312:	90 93 bb 00 	sts	0x00BB, r25
 316:	84 e8       	ldi	r24, 0x84	; 132
 318:	80 93 bc 00 	sts	0x00BC, r24
 31c:	80 91 bc 00 	lds	r24, 0x00BC
 320:	87 ff       	sbrs	r24, 7
 322:	fc cf       	rjmp	.-8      	; 0x31c <TWI_read_buf+0x1c>
 324:	60 93 bb 00 	sts	0x00BB, r22
 328:	84 e8       	ldi	r24, 0x84	; 132
 32a:	80 93 bc 00 	sts	0x00BC, r24
 32e:	80 91 bc 00 	lds	r24, 0x00BC
 332:	87 ff       	sbrs	r24, 7
 334:	fc cf       	rjmp	.-8      	; 0x32e <TWI_read_buf+0x2e>
 336:	84 ea       	ldi	r24, 0xA4	; 164
 338:	80 93 bc 00 	sts	0x00BC, r24
 33c:	80 91 bc 00 	lds	r24, 0x00BC
 340:	87 ff       	sbrs	r24, 7
 342:	fc cf       	rjmp	.-8      	; 0x33c <TWI_read_buf+0x3c>
 344:	9f 5f       	subi	r25, 0xFF	; 255
 346:	90 93 bb 00 	sts	0x00BB, r25
 34a:	84 e8       	ldi	r24, 0x84	; 132
 34c:	80 93 bc 00 	sts	0x00BC, r24
 350:	80 91 bc 00 	lds	r24, 0x00BC
 354:	87 ff       	sbrs	r24, 7
 356:	fc cf       	rjmp	.-8      	; 0x350 <TWI_read_buf+0x50>
 358:	15 c0       	rjmp	.+42     	; 0x384 <TWI_read_buf+0x84>
 35a:	41 50       	subi	r20, 0x01	; 1
 35c:	80 e0       	ldi	r24, 0x00	; 0
 35e:	90 e0       	ldi	r25, 0x00	; 0
 360:	11 f0       	breq	.+4      	; 0x366 <TWI_read_buf+0x66>
 362:	81 e0       	ldi	r24, 0x01	; 1
 364:	90 e0       	ldi	r25, 0x00	; 0
 366:	36 e0       	ldi	r19, 0x06	; 6
 368:	88 0f       	add	r24, r24
 36a:	99 1f       	adc	r25, r25
 36c:	3a 95       	dec	r19
 36e:	e1 f7       	brne	.-8      	; 0x368 <TWI_read_buf+0x68>
 370:	84 68       	ori	r24, 0x84	; 132
 372:	80 93 bc 00 	sts	0x00BC, r24
 376:	80 91 bc 00 	lds	r24, 0x00BC
 37a:	87 ff       	sbrs	r24, 7
 37c:	fc cf       	rjmp	.-8      	; 0x376 <TWI_read_buf+0x76>
 37e:	80 91 bb 00 	lds	r24, 0x00BB
 382:	81 93       	st	Z+, r24
 384:	44 23       	and	r20, r20
 386:	49 f7       	brne	.-46     	; 0x35a <TWI_read_buf+0x5a>
 388:	84 e9       	ldi	r24, 0x94	; 148
 38a:	80 93 bc 00 	sts	0x00BC, r24
 38e:	80 91 bc 00 	lds	r24, 0x00BC
 392:	84 fd       	sbrc	r24, 4
 394:	fc cf       	rjmp	.-8      	; 0x38e <TWI_read_buf+0x8e>
 396:	08 95       	ret

00000398 <measure_convert>:
 398:	90 91 57 01 	lds	r25, 0x0157
 39c:	80 e0       	ldi	r24, 0x00	; 0
 39e:	20 91 55 01 	lds	r18, 0x0155
 3a2:	30 91 56 01 	lds	r19, 0x0156
 3a6:	82 2b       	or	r24, r18
 3a8:	93 2b       	or	r25, r19
 3aa:	90 93 4f 01 	sts	0x014F, r25
 3ae:	80 93 4e 01 	sts	0x014E, r24
 3b2:	90 91 5b 01 	lds	r25, 0x015B
 3b6:	80 e0       	ldi	r24, 0x00	; 0
 3b8:	20 91 59 01 	lds	r18, 0x0159
 3bc:	30 91 5a 01 	lds	r19, 0x015A
 3c0:	82 2b       	or	r24, r18
 3c2:	93 2b       	or	r25, r19
 3c4:	90 93 54 01 	sts	0x0154, r25
 3c8:	80 93 53 01 	sts	0x0153, r24
 3cc:	90 91 5f 01 	lds	r25, 0x015F
 3d0:	80 e0       	ldi	r24, 0x00	; 0
 3d2:	20 91 5d 01 	lds	r18, 0x015D
 3d6:	30 91 5e 01 	lds	r19, 0x015E
 3da:	82 2b       	or	r24, r18
 3dc:	93 2b       	or	r25, r19
 3de:	90 93 52 01 	sts	0x0152, r25
 3e2:	80 93 51 01 	sts	0x0151, r24
 3e6:	08 95       	ret

000003e8 <display_adxl345_connect_test>:
 3e8:	80 91 50 01 	lds	r24, 0x0150
 3ec:	85 3e       	cpi	r24, 0xE5	; 229
 3ee:	21 f4       	brne	.+8      	; 0x3f8 <display_adxl345_connect_test+0x10>
 3f0:	80 e0       	ldi	r24, 0x00	; 0
 3f2:	91 e0       	ldi	r25, 0x01	; 1
 3f4:	0e 94 85 00 	call	0x10a	; 0x10a <uart_puts>
 3f8:	80 e2       	ldi	r24, 0x20	; 32
 3fa:	9e e4       	ldi	r25, 0x4E	; 78
 3fc:	2c e2       	ldi	r18, 0x2C	; 44
 3fe:	31 e0       	ldi	r19, 0x01	; 1
 400:	f9 01       	movw	r30, r18
 402:	31 97       	sbiw	r30, 0x01	; 1
 404:	f1 f7       	brne	.-4      	; 0x402 <display_adxl345_connect_test+0x1a>
 406:	01 97       	sbiw	r24, 0x01	; 1
 408:	d9 f7       	brne	.-10     	; 0x400 <display_adxl345_connect_test+0x18>
 40a:	08 95       	ret

0000040c <adxl345_display_measure>:
 40c:	0e 94 cc 01 	call	0x398	; 0x398 <measure_convert>
 410:	88 e0       	ldi	r24, 0x08	; 8
 412:	91 e0       	ldi	r25, 0x01	; 1
 414:	0e 94 85 00 	call	0x10a	; 0x10a <uart_puts>
 418:	80 91 4e 01 	lds	r24, 0x014E
 41c:	90 91 4f 01 	lds	r25, 0x014F
 420:	6a e0       	ldi	r22, 0x0A	; 10
 422:	70 e0       	ldi	r23, 0x00	; 0
 424:	0e 94 f4 00 	call	0x1e8	; 0x1e8 <uart_putint>
 428:	8b e0       	ldi	r24, 0x0B	; 11
 42a:	91 e0       	ldi	r25, 0x01	; 1
 42c:	0e 94 85 00 	call	0x10a	; 0x10a <uart_puts>
 430:	80 91 53 01 	lds	r24, 0x0153
 434:	90 91 54 01 	lds	r25, 0x0154
 438:	6a e0       	ldi	r22, 0x0A	; 10
 43a:	70 e0       	ldi	r23, 0x00	; 0
 43c:	0e 94 f4 00 	call	0x1e8	; 0x1e8 <uart_putint>
 440:	8f e0       	ldi	r24, 0x0F	; 15
 442:	91 e0       	ldi	r25, 0x01	; 1
 444:	0e 94 85 00 	call	0x10a	; 0x10a <uart_puts>
 448:	80 91 51 01 	lds	r24, 0x0151
 44c:	90 91 52 01 	lds	r25, 0x0152
 450:	6a e0       	ldi	r22, 0x0A	; 10
 452:	70 e0       	ldi	r23, 0x00	; 0
 454:	0e 94 f4 00 	call	0x1e8	; 0x1e8 <uart_putint>
 458:	8d e0       	ldi	r24, 0x0D	; 13
 45a:	0e 94 6f 00 	call	0xde	; 0xde <uart_putc>
 45e:	8a e0       	ldi	r24, 0x0A	; 10
 460:	0e 94 6f 00 	call	0xde	; 0xde <uart_putc>
 464:	08 95       	ret

00000466 <measure_i2c_read>:
 466:	ff 92       	push	r15
 468:	0f 93       	push	r16
 46a:	1f 93       	push	r17
 46c:	cf 93       	push	r28
 46e:	df 93       	push	r29
 470:	08 2f       	mov	r16, r24
 472:	16 2f       	mov	r17, r22
 474:	f4 2e       	mov	r15, r20
 476:	e9 01       	movw	r28, r18
 478:	0e 94 25 01 	call	0x24a	; 0x24a <TWI_start>
 47c:	80 2f       	mov	r24, r16
 47e:	0e 94 35 01 	call	0x26a	; 0x26a <TWI_write>
 482:	81 2f       	mov	r24, r17
 484:	0e 94 35 01 	call	0x26a	; 0x26a <TWI_write>
 488:	0e 94 25 01 	call	0x24a	; 0x24a <TWI_start>
 48c:	80 2f       	mov	r24, r16
 48e:	8f 5f       	subi	r24, 0xFF	; 255
 490:	0e 94 35 01 	call	0x26a	; 0x26a <TWI_write>
 494:	09 c0       	rjmp	.+18     	; 0x4a8 <measure_i2c_read+0x42>
 496:	fa 94       	dec	r15
 498:	80 e0       	ldi	r24, 0x00	; 0
 49a:	09 f0       	breq	.+2      	; 0x49e <measure_i2c_read+0x38>
 49c:	81 e0       	ldi	r24, 0x01	; 1
 49e:	0e 94 3f 01 	call	0x27e	; 0x27e <TWI_read>
 4a2:	88 83       	st	Y, r24
 4a4:	19 82       	std	Y+1, r1	; 0x01
 4a6:	22 96       	adiw	r28, 0x02	; 2
 4a8:	ff 20       	and	r15, r15
 4aa:	a9 f7       	brne	.-22     	; 0x496 <measure_i2c_read+0x30>
 4ac:	0e 94 2d 01 	call	0x25a	; 0x25a <TWI_stop>
 4b0:	df 91       	pop	r29
 4b2:	cf 91       	pop	r28
 4b4:	1f 91       	pop	r17
 4b6:	0f 91       	pop	r16
 4b8:	ff 90       	pop	r15
 4ba:	08 95       	ret

000004bc <adxl345_measure_read>:
 4bc:	86 ea       	ldi	r24, 0xA6	; 166
 4be:	62 e3       	ldi	r22, 0x32	; 50
 4c0:	46 e0       	ldi	r20, 0x06	; 6
 4c2:	25 e5       	ldi	r18, 0x55	; 85
 4c4:	31 e0       	ldi	r19, 0x01	; 1
 4c6:	0e 94 33 02 	call	0x466	; 0x466 <measure_i2c_read>
 4ca:	08 95       	ret

000004cc <connect_test>:
 4cc:	ff 92       	push	r15
 4ce:	0f 93       	push	r16
 4d0:	1f 93       	push	r17
 4d2:	cf 93       	push	r28
 4d4:	df 93       	push	r29
 4d6:	08 2f       	mov	r16, r24
 4d8:	16 2f       	mov	r17, r22
 4da:	f4 2e       	mov	r15, r20
 4dc:	e9 01       	movw	r28, r18
 4de:	0e 94 25 01 	call	0x24a	; 0x24a <TWI_start>
 4e2:	80 2f       	mov	r24, r16
 4e4:	0e 94 35 01 	call	0x26a	; 0x26a <TWI_write>
 4e8:	81 2f       	mov	r24, r17
 4ea:	0e 94 35 01 	call	0x26a	; 0x26a <TWI_write>
 4ee:	0e 94 25 01 	call	0x24a	; 0x24a <TWI_start>
 4f2:	80 2f       	mov	r24, r16
 4f4:	8f 5f       	subi	r24, 0xFF	; 255
 4f6:	0e 94 35 01 	call	0x26a	; 0x26a <TWI_write>
 4fa:	07 c0       	rjmp	.+14     	; 0x50a <connect_test+0x3e>
 4fc:	fa 94       	dec	r15
 4fe:	80 e0       	ldi	r24, 0x00	; 0
 500:	09 f0       	breq	.+2      	; 0x504 <connect_test+0x38>
 502:	81 e0       	ldi	r24, 0x01	; 1
 504:	0e 94 3f 01 	call	0x27e	; 0x27e <TWI_read>
 508:	89 93       	st	Y+, r24
 50a:	ff 20       	and	r15, r15
 50c:	b9 f7       	brne	.-18     	; 0x4fc <connect_test+0x30>
 50e:	0e 94 2d 01 	call	0x25a	; 0x25a <TWI_stop>
 512:	df 91       	pop	r29
 514:	cf 91       	pop	r28
 516:	1f 91       	pop	r17
 518:	0f 91       	pop	r16
 51a:	ff 90       	pop	r15
 51c:	08 95       	ret

0000051e <measure>:
 51e:	0e 94 25 01 	call	0x24a	; 0x24a <TWI_start>
 522:	86 ea       	ldi	r24, 0xA6	; 166
 524:	0e 94 35 01 	call	0x26a	; 0x26a <TWI_write>
 528:	8d e2       	ldi	r24, 0x2D	; 45
 52a:	0e 94 35 01 	call	0x26a	; 0x26a <TWI_write>
 52e:	88 e0       	ldi	r24, 0x08	; 8
 530:	0e 94 35 01 	call	0x26a	; 0x26a <TWI_write>
 534:	0e 94 2d 01 	call	0x25a	; 0x25a <TWI_stop>
 538:	08 95       	ret

0000053a <standby>:
 53a:	0e 94 25 01 	call	0x24a	; 0x24a <TWI_start>
 53e:	86 ea       	ldi	r24, 0xA6	; 166
 540:	0e 94 35 01 	call	0x26a	; 0x26a <TWI_write>
 544:	8d e2       	ldi	r24, 0x2D	; 45
 546:	0e 94 35 01 	call	0x26a	; 0x26a <TWI_write>
 54a:	80 e1       	ldi	r24, 0x10	; 16
 54c:	0e 94 35 01 	call	0x26a	; 0x26a <TWI_write>
 550:	0e 94 2d 01 	call	0x25a	; 0x25a <TWI_stop>
 554:	08 95       	ret

00000556 <power_on>:
 556:	0e 94 25 01 	call	0x24a	; 0x24a <TWI_start>
 55a:	86 ea       	ldi	r24, 0xA6	; 166
 55c:	0e 94 35 01 	call	0x26a	; 0x26a <TWI_write>
 560:	8d e2       	ldi	r24, 0x2D	; 45
 562:	0e 94 35 01 	call	0x26a	; 0x26a <TWI_write>
 566:	80 e0       	ldi	r24, 0x00	; 0
 568:	0e 94 35 01 	call	0x26a	; 0x26a <TWI_write>
 56c:	0e 94 2d 01 	call	0x25a	; 0x25a <TWI_stop>
 570:	08 95       	ret

00000572 <adxl345_init>:
 572:	0e 94 ab 02 	call	0x556	; 0x556 <power_on>
 576:	0e 94 9d 02 	call	0x53a	; 0x53a <standby>
 57a:	0e 94 8f 02 	call	0x51e	; 0x51e <measure>
 57e:	86 ea       	ldi	r24, 0xA6	; 166
 580:	60 e0       	ldi	r22, 0x00	; 0
 582:	41 e0       	ldi	r20, 0x01	; 1
 584:	20 e5       	ldi	r18, 0x50	; 80
 586:	31 e0       	ldi	r19, 0x01	; 1
 588:	0e 94 66 02 	call	0x4cc	; 0x4cc <connect_test>
 58c:	08 95       	ret

0000058e <main>:
 58e:	1f 93       	push	r17
 590:	cf 93       	push	r28
 592:	df 93       	push	r29
 594:	8d e4       	ldi	r24, 0x4D	; 77
 596:	90 e0       	ldi	r25, 0x00	; 0
 598:	0e 94 53 00 	call	0xa6	; 0xa6 <USART_Init>
 59c:	84 e6       	ldi	r24, 0x64	; 100
 59e:	90 e0       	ldi	r25, 0x00	; 0
 5a0:	0e 94 15 01 	call	0x22a	; 0x22a <i2cSetBitrate>
 5a4:	78 94       	sei
 5a6:	8d e0       	ldi	r24, 0x0D	; 13
 5a8:	0e 94 6f 00 	call	0xde	; 0xde <uart_putc>
 5ac:	8a e0       	ldi	r24, 0x0A	; 10
 5ae:	0e 94 6f 00 	call	0xde	; 0xde <uart_putc>
 5b2:	83 e1       	ldi	r24, 0x13	; 19
 5b4:	91 e0       	ldi	r25, 0x01	; 1
 5b6:	0e 94 85 00 	call	0x10a	; 0x10a <uart_puts>
 5ba:	8d e0       	ldi	r24, 0x0D	; 13
 5bc:	0e 94 6f 00 	call	0xde	; 0xde <uart_putc>
 5c0:	8a e0       	ldi	r24, 0x0A	; 10
 5c2:	0e 94 6f 00 	call	0xde	; 0xde <uart_putc>
 5c6:	81 e0       	ldi	r24, 0x01	; 1
 5c8:	87 b9       	out	0x07, r24	; 7
 5ca:	3b 9a       	sbi	0x07, 3	; 7
 5cc:	43 9a       	sbi	0x08, 3	; 8
 5ce:	0e 94 b9 02 	call	0x572	; 0x572 <adxl345_init>
 5d2:	0e 94 f4 01 	call	0x3e8	; 0x3e8 <display_adxl345_connect_test>
 5d6:	11 e0       	ldi	r17, 0x01	; 1
 5d8:	cc e2       	ldi	r28, 0x2C	; 44
 5da:	d1 e0       	ldi	r29, 0x01	; 1
 5dc:	0e 94 5e 02 	call	0x4bc	; 0x4bc <adxl345_measure_read>
 5e0:	0e 94 06 02 	call	0x40c	; 0x40c <adxl345_display_measure>
 5e4:	88 b1       	in	r24, 0x08	; 8
 5e6:	81 27       	eor	r24, r17
 5e8:	88 b9       	out	0x08, r24	; 8
 5ea:	80 ed       	ldi	r24, 0xD0	; 208
 5ec:	97 e0       	ldi	r25, 0x07	; 7
 5ee:	fe 01       	movw	r30, r28
 5f0:	31 97       	sbiw	r30, 0x01	; 1
 5f2:	f1 f7       	brne	.-4      	; 0x5f0 <main+0x62>
 5f4:	01 97       	sbiw	r24, 0x01	; 1
 5f6:	d9 f7       	brne	.-10     	; 0x5ee <main+0x60>
 5f8:	f1 cf       	rjmp	.-30     	; 0x5dc <main+0x4e>

000005fa <__udivmodhi4>:
 5fa:	aa 1b       	sub	r26, r26
 5fc:	bb 1b       	sub	r27, r27
 5fe:	51 e1       	ldi	r21, 0x11	; 17
 600:	07 c0       	rjmp	.+14     	; 0x610 <__udivmodhi4_ep>

00000602 <__udivmodhi4_loop>:
 602:	aa 1f       	adc	r26, r26
 604:	bb 1f       	adc	r27, r27
 606:	a6 17       	cp	r26, r22
 608:	b7 07       	cpc	r27, r23
 60a:	10 f0       	brcs	.+4      	; 0x610 <__udivmodhi4_ep>
 60c:	a6 1b       	sub	r26, r22
 60e:	b7 0b       	sbc	r27, r23

00000610 <__udivmodhi4_ep>:
 610:	88 1f       	adc	r24, r24
 612:	99 1f       	adc	r25, r25
 614:	5a 95       	dec	r21
 616:	a9 f7       	brne	.-22     	; 0x602 <__udivmodhi4_loop>
 618:	80 95       	com	r24
 61a:	90 95       	com	r25
 61c:	bc 01       	movw	r22, r24
 61e:	cd 01       	movw	r24, r26
 620:	08 95       	ret

00000622 <itoa>:
 622:	fb 01       	movw	r30, r22
 624:	9f 01       	movw	r18, r30
 626:	e8 94       	clt
 628:	42 30       	cpi	r20, 0x02	; 2
 62a:	c4 f0       	brlt	.+48     	; 0x65c <itoa+0x3a>
 62c:	45 32       	cpi	r20, 0x25	; 37
 62e:	b4 f4       	brge	.+44     	; 0x65c <itoa+0x3a>
 630:	4a 30       	cpi	r20, 0x0A	; 10
 632:	29 f4       	brne	.+10     	; 0x63e <itoa+0x1c>
 634:	97 fb       	bst	r25, 7
 636:	1e f4       	brtc	.+6      	; 0x63e <itoa+0x1c>
 638:	90 95       	com	r25
 63a:	81 95       	neg	r24
 63c:	9f 4f       	sbci	r25, 0xFF	; 255
 63e:	64 2f       	mov	r22, r20
 640:	77 27       	eor	r23, r23
 642:	0e 94 fd 02 	call	0x5fa	; 0x5fa <__udivmodhi4>
 646:	80 5d       	subi	r24, 0xD0	; 208
 648:	8a 33       	cpi	r24, 0x3A	; 58
 64a:	0c f0       	brlt	.+2      	; 0x64e <itoa+0x2c>
 64c:	89 5d       	subi	r24, 0xD9	; 217
 64e:	81 93       	st	Z+, r24
 650:	cb 01       	movw	r24, r22
 652:	00 97       	sbiw	r24, 0x00	; 0
 654:	a1 f7       	brne	.-24     	; 0x63e <itoa+0x1c>
 656:	16 f4       	brtc	.+4      	; 0x65c <itoa+0x3a>
 658:	5d e2       	ldi	r21, 0x2D	; 45
 65a:	51 93       	st	Z+, r21
 65c:	10 82       	st	Z, r1
 65e:	c9 01       	movw	r24, r18
 660:	0c 94 32 03 	jmp	0x664	; 0x664 <strrev>

00000664 <strrev>:
 664:	dc 01       	movw	r26, r24
 666:	fc 01       	movw	r30, r24
 668:	67 2f       	mov	r22, r23
 66a:	71 91       	ld	r23, Z+
 66c:	77 23       	and	r23, r23
 66e:	e1 f7       	brne	.-8      	; 0x668 <strrev+0x4>
 670:	32 97       	sbiw	r30, 0x02	; 2
 672:	04 c0       	rjmp	.+8      	; 0x67c <strrev+0x18>
 674:	7c 91       	ld	r23, X
 676:	6d 93       	st	X+, r22
 678:	70 83       	st	Z, r23
 67a:	62 91       	ld	r22, -Z
 67c:	ae 17       	cp	r26, r30
 67e:	bf 07       	cpc	r27, r31
 680:	c8 f3       	brcs	.-14     	; 0x674 <strrev+0x10>
 682:	08 95       	ret

00000684 <_exit>:
 684:	f8 94       	cli

00000686 <__stop_program>:
 686:	ff cf       	rjmp	.-2      	; 0x686 <__stop_program>
